; ModuleID = '12/38.c'
source_filename = "12/38.c"
target datalayout = "e-m:e-p270:32:32-p271:32:32-p272:64:64-i64:64-f80:128-n8:16:32:64-S128"
target triple = "x86_64-pc-linux-gnu"

@.str = private unnamed_addr constant [3 x i8] c"%d\00", align 1
@.str.1 = private unnamed_addr constant [4 x i8] c"%d\0A\00", align 1

; Function Attrs: noinline nounwind uwtable
define dso_local i32 @main(i32 %0, i8** %1) #0 {
  %3 = alloca i32, align 4
  %4 = alloca i32, align 4
  %5 = alloca i8**, align 8
  %6 = alloca [50 x [15 x i32]], align 16
  %7 = alloca [50 x i32], align 16
  %8 = alloca i32, align 4
  %9 = alloca i32, align 4
  %10 = alloca i32, align 4
  %11 = alloca i32, align 4
  %12 = alloca i32, align 4
  store i32 0, i32* %3, align 4
  store i32 %0, i32* %4, align 4
  store i8** %1, i8*** %5, align 8
  store i32 0, i32* %10, align 4
  br label %13

13:                                               ; preds = %60, %2
  store i32 0, i32* %11, align 4
  br label %14

14:                                               ; preds = %45, %13
  %15 = load i32, i32* %10, align 4
  %16 = sext i32 %15 to i64
  %17 = getelementptr inbounds [50 x [15 x i32]], [50 x [15 x i32]]* %6, i64 0, i64 %16
  %18 = load i32, i32* %11, align 4
  %19 = sext i32 %18 to i64
  %20 = getelementptr inbounds [15 x i32], [15 x i32]* %17, i64 0, i64 %19
  %21 = call i32 (i8*, ...) @__isoc99_scanf(i8* getelementptr inbounds ([3 x i8], [3 x i8]* @.str, i64 0, i64 0), i32* %20)
  %22 = load i32, i32* %10, align 4
  %23 = sext i32 %22 to i64
  %24 = getelementptr inbounds [50 x [15 x i32]], [50 x [15 x i32]]* %6, i64 0, i64 %23
  %25 = load i32, i32* %11, align 4
  %26 = sext i32 %25 to i64
  %27 = getelementptr inbounds [15 x i32], [15 x i32]* %24, i64 0, i64 %26
  %28 = load i32, i32* %27, align 4
  %29 = icmp eq i32 %28, 0
  br i1 %29, label %39, label %30

30:                                               ; preds = %14
  %31 = load i32, i32* %10, align 4
  %32 = sext i32 %31 to i64
  %33 = getelementptr inbounds [50 x [15 x i32]], [50 x [15 x i32]]* %6, i64 0, i64 %32
  %34 = load i32, i32* %11, align 4
  %35 = sext i32 %34 to i64
  %36 = getelementptr inbounds [15 x i32], [15 x i32]* %33, i64 0, i64 %35
  %37 = load i32, i32* %36, align 4
  %38 = icmp eq i32 %37, -1
  br i1 %38, label %39, label %44

39:                                               ; preds = %30, %14
  %40 = load i32, i32* %11, align 4
  %41 = load i32, i32* %10, align 4
  %42 = sext i32 %41 to i64
  %43 = getelementptr inbounds [50 x i32], [50 x i32]* %7, i64 0, i64 %42
  store i32 %40, i32* %43, align 4
  br label %48

44:                                               ; preds = %30
  br label %45

45:                                               ; preds = %44
  %46 = load i32, i32* %11, align 4
  %47 = add nsw i32 %46, 1
  store i32 %47, i32* %11, align 4
  br label %14

48:                                               ; preds = %39
  %49 = load i32, i32* %10, align 4
  %50 = sext i32 %49 to i64
  %51 = getelementptr inbounds [50 x [15 x i32]], [50 x [15 x i32]]* %6, i64 0, i64 %50
  %52 = load i32, i32* %11, align 4
  %53 = sext i32 %52 to i64
  %54 = getelementptr inbounds [15 x i32], [15 x i32]* %51, i64 0, i64 %53
  %55 = load i32, i32* %54, align 4
  %56 = icmp eq i32 %55, -1
  br i1 %56, label %57, label %59

57:                                               ; preds = %48
  %58 = load i32, i32* %10, align 4
  store i32 %58, i32* %8, align 4
  br label %63

59:                                               ; preds = %48
  br label %60

60:                                               ; preds = %59
  %61 = load i32, i32* %10, align 4
  %62 = add nsw i32 %61, 1
  store i32 %62, i32* %10, align 4
  br label %13

63:                                               ; preds = %57
  store i32 0, i32* %10, align 4
  br label %64

64:                                               ; preds = %134, %63
  %65 = load i32, i32* %10, align 4
  %66 = load i32, i32* %8, align 4
  %67 = icmp slt i32 %65, %66
  br i1 %67, label %68, label %137

68:                                               ; preds = %64
  store i32 0, i32* %9, align 4
  store i32 0, i32* %11, align 4
  br label %69

69:                                               ; preds = %128, %68
  %70 = load i32, i32* %11, align 4
  %71 = load i32, i32* %10, align 4
  %72 = sext i32 %71 to i64
  %73 = getelementptr inbounds [50 x i32], [50 x i32]* %7, i64 0, i64 %72
  %74 = load i32, i32* %73, align 4
  %75 = icmp slt i32 %70, %74
  br i1 %75, label %76, label %131

76:                                               ; preds = %69
  %77 = load i32, i32* %11, align 4
  %78 = add nsw i32 %77, 1
  store i32 %78, i32* %12, align 4
  br label %79

79:                                               ; preds = %124, %76
  %80 = load i32, i32* %12, align 4
  %81 = load i32, i32* %10, align 4
  %82 = sext i32 %81 to i64
  %83 = getelementptr inbounds [50 x i32], [50 x i32]* %7, i64 0, i64 %82
  %84 = load i32, i32* %83, align 4
  %85 = icmp slt i32 %80, %84
  br i1 %85, label %86, label %127

86:                                               ; preds = %79
  %87 = load i32, i32* %10, align 4
  %88 = sext i32 %87 to i64
  %89 = getelementptr inbounds [50 x [15 x i32]], [50 x [15 x i32]]* %6, i64 0, i64 %88
  %90 = load i32, i32* %11, align 4
  %91 = sext i32 %90 to i64
  %92 = getelementptr inbounds [15 x i32], [15 x i32]* %89, i64 0, i64 %91
  %93 = load i32, i32* %92, align 4
  %94 = load i32, i32* %10, align 4
  %95 = sext i32 %94 to i64
  %96 = getelementptr inbounds [50 x [15 x i32]], [50 x [15 x i32]]* %6, i64 0, i64 %95
  %97 = load i32, i32* %12, align 4
  %98 = sext i32 %97 to i64
  %99 = getelementptr inbounds [15 x i32], [15 x i32]* %96, i64 0, i64 %98
  %100 = load i32, i32* %99, align 4
  %101 = mul nsw i32 %100, 2
  %102 = icmp eq i32 %93, %101
  br i1 %102, label %120, label %103

103:                                              ; preds = %86
  %104 = load i32, i32* %10, align 4
  %105 = sext i32 %104 to i64
  %106 = getelementptr inbounds [50 x [15 x i32]], [50 x [15 x i32]]* %6, i64 0, i64 %105
  %107 = load i32, i32* %12, align 4
  %108 = sext i32 %107 to i64
  %109 = getelementptr inbounds [15 x i32], [15 x i32]* %106, i64 0, i64 %108
  %110 = load i32, i32* %109, align 4
  %111 = load i32, i32* %10, align 4
  %112 = sext i32 %111 to i64
  %113 = getelementptr inbounds [50 x [15 x i32]], [50 x [15 x i32]]* %6, i64 0, i64 %112
  %114 = load i32, i32* %11, align 4
  %115 = sext i32 %114 to i64
  %116 = getelementptr inbounds [15 x i32], [15 x i32]* %113, i64 0, i64 %115
  %117 = load i32, i32* %116, align 4
  %118 = mul nsw i32 %117, 2
  %119 = icmp eq i32 %110, %118
  br i1 %119, label %120, label %123

120:                                              ; preds = %103, %86
  %121 = load i32, i32* %9, align 4
  %122 = add nsw i32 %121, 1
  store i32 %122, i32* %9, align 4
  br label %123

123:                                              ; preds = %120, %103
  br label %124

124:                                              ; preds = %123
  %125 = load i32, i32* %12, align 4
  %126 = add nsw i32 %125, 1
  store i32 %126, i32* %12, align 4
  br label %79

127:                                              ; preds = %79
  br label %128

128:                                              ; preds = %127
  %129 = load i32, i32* %11, align 4
  %130 = add nsw i32 %129, 1
  store i32 %130, i32* %11, align 4
  br label %69

131:                                              ; preds = %69
  %132 = load i32, i32* %9, align 4
  %133 = call i32 (i8*, ...) @printf(i8* getelementptr inbounds ([4 x i8], [4 x i8]* @.str.1, i64 0, i64 0), i32 %132)
  br label %134

134:                                              ; preds = %131
  %135 = load i32, i32* %10, align 4
  %136 = add nsw i32 %135, 1
  store i32 %136, i32* %10, align 4
  br label %64

137:                                              ; preds = %64
  ret i32 0
}

declare dso_local i32 @__isoc99_scanf(i8*, ...) #1

declare dso_local i32 @printf(i8*, ...) #1


!llvm.module.flags = !{!0}
!llvm.ident = !{!1}

!0 = !{i32 1, !"wchar_size", i32 4}
!1 = !{!"clang version 10.0.0-4ubuntu1 "}
